target datalayout = "e-m:e-p270:32:32-p271:32:32-p272:64:64-i64:64-i128:128-f80:128-n8:16:32:64-S128"
target triple = "x86_64-pc-linux-gnu"

@hf_btad_gaen_rpi128 = internal global i32 0, align 4
@hf_btad_gaen_aemd32 = internal global i32 0, align 4
@ett_btad_gaen = internal global i32 0, align 4
@proto_btad_gaen = internal global i32 0, align 4

; Function Attrs: nounwind uwtable
define internal i32 @dissect_btad_gaen(ptr noundef %0, ptr noundef %1, ptr noundef %2, ptr noundef %3) #1 {
  %5 = alloca ptr, align 8
  %6 = alloca ptr, align 8
  %7 = alloca ptr, align 8
  %8 = alloca ptr, align 8
  %9 = alloca ptr, align 8
  %10 = alloca ptr, align 8
  %11 = alloca i32, align 4
  store ptr %0, ptr %5, align 8
  store ptr %1, ptr %6, align 8
  store ptr %2, ptr %7, align 8
  store ptr %3, ptr %8, align 8
  store i32 0, ptr %11, align 4
  %12 = load ptr, ptr %5, align 8
  %13 = call i32 @tvb_captured_length(ptr noundef %12)
  %14 = sub i32 %13, 20
  store i32 %14, ptr %11, align 4
  %15 = load ptr, ptr %7, align 8
  %16 = load i32, ptr @proto_btad_gaen, align 4
  %17 = load ptr, ptr %5, align 8
  %18 = load i32, ptr %11, align 4
  %19 = call ptr @proto_tree_add_item(ptr noundef %15, i32 noundef %16, ptr noundef %17, i32 noundef %18, i32 noundef -1, i32 noundef 0)
  store ptr %19, ptr %10, align 8
  %20 = load ptr, ptr %10, align 8
  %21 = load i32, ptr @ett_btad_gaen, align 4
  %22 = call ptr @proto_item_add_subtree(ptr noundef %20, i32 noundef %21)
  store ptr %22, ptr %9, align 8
  %23 = load ptr, ptr %9, align 8
  %24 = load i32, ptr @hf_btad_gaen_rpi128, align 4
  %25 = load ptr, ptr %5, align 8
  %26 = load i32, ptr %11, align 4
  %27 = call ptr @proto_tree_add_item(ptr noundef %23, i32 noundef %24, ptr noundef %25, i32 noundef %26, i32 noundef 16, i32 noundef 0)
  %28 = load i32, ptr %11, align 4
  %29 = add i32 %28, 16
  store i32 %29, ptr %11, align 4
  %30 = load ptr, ptr %9, align 8
  %31 = load i32, ptr @hf_btad_gaen_aemd32, align 4
  %32 = load ptr, ptr %5, align 8
  %33 = load i32, ptr %11, align 4
  %34 = call ptr @proto_tree_add_item(ptr noundef %30, i32 noundef %31, ptr noundef %32, i32 noundef %33, i32 noundef 4, i32 noundef 0)
  %35 = load i32, ptr %11, align 4
  %36 = add i32 %35, 4
  store i32 %36, ptr %11, align 4
  %37 = load i32, ptr %11, align 4
  ret i32 %37
}