; Function Attrs: nounwind uwtable
define internal i32 @dissect_btad_gaen(ptr noundef %0, ptr readnone captures(none) %1, ptr noundef %2, ptr readnone captures(none) %3) #1 {
  %5 = tail call i32 @tvb_captured_length(ptr noundef %0) #9
  %6 = add i32 %5, -20
  %7 = load i32, ptr @proto_btad_gaen, align 4
  %8 = tail call ptr @proto_tree_add_item(ptr noundef %2, i32 noundef %7, ptr noundef %0, i32 noundef %6, i32 noundef -1, i32 noundef 0) #9
  %9 = load i32, ptr @ett_btad_gaen, align 4
  %10 = tail call ptr @proto_item_add_subtree(ptr noundef %8, i32 noundef %9) #9
  %11 = load i32, ptr @hf_btad_gaen_rpi128, align 4
  %12 = tail call ptr @proto_tree_add_item(ptr noundef %10, i32 noundef %11, ptr noundef %0, i32 noundef %6, i32 noundef 16, i32 noundef 0) #9
  %13 = add i32 %5, -4
  %14 = load i32, ptr @hf_btad_gaen_aemd32, align 4
  %15 = tail call ptr @proto_tree_add_item(ptr noundef %10, i32 noundef %14, ptr noundef %0, i32 noundef %13, i32 noundef 4, i32 noundef 0) #9
  ret i32 %5
}